target datalayout = "e-m:e-p270:32:32-p271:32:32-p272:64:64-i64:64-i128:128-f80:128-n8:16:32:64-S128"
target triple = "x86_64-unknown-linux-gnu"

%class.fpa_util = type { ptr, ptr, i32, %class.arith_util, %class.bv_util }
%class.arith_util = type { ptr, ptr }
%class.bv_util = type { %class.bv_recognizers, ptr, ptr }
%class.bv_recognizers = type { i32 }
%class.seq_util = type { ptr, ptr, ptr, i32, [4 x i8], %"class.seq_util::str", %"class.seq_util::rex" }
%"class.seq_util::str" = type <{ ptr, ptr, i32, [4 x i8] }>
%"class.seq_util::rex" = type { ptr, ptr, i32, %class.vector.58, %class.ref_vector, %"struct.seq_util::rex::info", %"struct.seq_util::rex::info" }
%class.vector.58 = type { ptr }
%class.ref_vector = type { %class.ref_vector_core }
%class.ref_vector_core = type { %class.ref_manager_wrapper, %class.ptr_vector.59 }
%class.ref_manager_wrapper = type { ptr }
%class.ptr_vector.59 = type { %class.vector.60 }
%class.vector.60 = type { ptr }
%"struct.seq_util::rex::info" = type { i32, i8, i32, i32 }
%class.obj_map.29 = type { %class.core_hashtable.30 }
%class.core_hashtable.30 = type <{ ptr, i32, i32, i32, [4 x i8] }>
%class.array_recognizers = type { i32 }
%class.ref_vector_core.99 = type { %class.ref_manager_wrapper.100, %class.ptr_vector.101 }
%class.ref_manager_wrapper.100 = type { ptr }
%class.ptr_vector.101 = type { %class.vector.102 }
%class.vector.102 = type { ptr }
%class.params_ref = type { ptr }
%class.smt2_pp_environment_dbg = type { %class.smt2_pp_environment, ptr, %class.arith_util, %class.bv_util, %class.array_util, %class.fpa_util, %class.seq_util, %"class.datatype::util", %"class.datalog::dl_decl_util" }
%class.smt2_pp_environment = type { ptr, %class.smt_renaming }
%class.smt_renaming = type { %class.map, %class.map.0 }
%class.map = type { %class.table2map }
%class.table2map = type { %class.core_hashtable }
%class.core_hashtable = type <{ ptr, i32, i32, i32, [4 x i8] }>
%class.map.0 = type { %class.table2map.1 }
%class.table2map.1 = type { %class.core_hashtable.2 }
%class.core_hashtable.2 = type <{ ptr, i32, i32, i32, [4 x i8] }>
%class.array_util = type { %class.array_recognizers, ptr }
%"class.datatype::util" = type { ptr, i32, ptr, %class.obj_map.62, %class.obj_map.67, %class.obj_map.72, %class.obj_map.29, %class.obj_map.29, %class.obj_map.29, %class.obj_map.77, %class.obj_map.77, %class.obj_map.77, %class.ref_vector.82, %class.ref_vector_core.87, %class.ptr_vector.90, i32, %class.ptr_vector.92 }
%class.obj_map.62 = type { %class.core_hashtable.63 }
%class.core_hashtable.63 = type <{ ptr, i32, i32, i32, [4 x i8] }>
%class.obj_map.67 = type { %class.core_hashtable.68 }
%class.core_hashtable.68 = type <{ ptr, i32, i32, i32, [4 x i8] }>
%class.obj_map.72 = type { %class.core_hashtable.73 }
%class.core_hashtable.73 = type <{ ptr, i32, i32, i32, [4 x i8] }>
%class.obj_map.77 = type { %class.core_hashtable.78 }
%class.core_hashtable.78 = type <{ ptr, i32, i32, i32, [4 x i8] }>
%class.ref_vector.82 = type { %class.ref_vector_core.83 }
%class.ref_vector_core.83 = type { %class.ref_manager_wrapper.84, %class.ptr_vector.85 }
%class.ref_manager_wrapper.84 = type { ptr }
%class.ptr_vector.85 = type { %class.vector.86 }
%class.vector.86 = type { ptr }
%class.ref_vector_core.87 = type { %class.ptr_vector.88 }
%class.ptr_vector.88 = type { %class.vector.89 }
%class.vector.89 = type { ptr }
%class.ptr_vector.90 = type { %class.vector.91 }
%class.vector.91 = type { ptr }
%class.ptr_vector.92 = type { %class.vector.93 }
%class.vector.93 = type { ptr }
%"class.datalog::dl_decl_util" = type <{ ptr, %class.scoped_ptr, %class.scoped_ptr.61, i32, [4 x i8] }>
%class.scoped_ptr = type { ptr }
%class.scoped_ptr.61 = type { ptr }

; Function Attrs: mustprogress nounwind uwtable
define linkonce_odr hidden noundef ptr @_ZNK6vectorIP3appLb0EjE4dataEv(ptr noundef nonnull align 8 dereferenceable(8) %this) #5 comdat align 2 {
entry:
  %this.addr = alloca ptr, align 8
  store ptr %this, ptr %this.addr, align 8
  %this1 = load ptr, ptr %this.addr, align 8
  %m_data = getelementptr inbounds %class.vector.102, ptr %this1, i32 0, i32 0
  %0 = load ptr, ptr %m_data, align 8
  ret ptr %0
}

; Function Attrs: mustprogress nounwind uwtable
define linkonce_odr hidden noundef i32 @_ZNK6vectorIP3appLb0EjE4sizeEv(ptr noundef nonnull align 8 dereferenceable(8) %this) #5 comdat align 2 {
entry:
  %retval = alloca i32, align 4
  %this.addr = alloca ptr, align 8
  store ptr %this, ptr %this.addr, align 8
  %this1 = load ptr, ptr %this.addr, align 8
  %m_data = getelementptr inbounds %class.vector.102, ptr %this1, i32 0, i32 0
  %0 = load ptr, ptr %m_data, align 8
  %cmp = icmp eq ptr %0, null
  br i1 %cmp, label %if.then, label %if.end

if.then:                                          ; preds = %entry
  store i32 0, ptr %retval, align 4
  br label %return

if.end:                                           ; preds = %entry
  %m_data2 = getelementptr inbounds %class.vector.102, ptr %this1, i32 0, i32 0
  %1 = load ptr, ptr %m_data2, align 8
  %arrayidx = getelementptr inbounds i32, ptr %1, i64 -1
  %2 = load i32, ptr %arrayidx, align 4
  store i32 %2, ptr %retval, align 4
  br label %return

return:                                           ; preds = %if.end, %if.then
  %3 = load i32, ptr %retval, align 4
  ret i32 %3
}

; Function Attrs: mustprogress nounwind uwtable
define linkonce_odr hidden noundef ptr @_ZNK15ref_vector_coreI3app19ref_manager_wrapperIS0_11ast_managerEE4dataEv(ptr noundef nonnull align 8 dereferenceable(16) %this) #5 comdat align 2 {
entry:
  %this.addr = alloca ptr, align 8
  store ptr %this, ptr %this.addr, align 8
  %this1 = load ptr, ptr %this.addr, align 8
  %m_nodes = getelementptr inbounds %class.ref_vector_core.99, ptr %this1, i32 0, i32 1
  %call = call noundef ptr @_ZNK6vectorIP3appLb0EjE4dataEv(ptr noundef nonnull align 8 dereferenceable(8) %m_nodes)
  ret ptr %call
}

; Function Attrs: mustprogress nounwind uwtable
define linkonce_odr hidden noundef i32 @_ZNK15ref_vector_coreI3app19ref_manager_wrapperIS0_11ast_managerEE4sizeEv(ptr noundef nonnull align 8 dereferenceable(16) %this) #5 comdat align 2 {
entry:
  %this.addr = alloca ptr, align 8
  store ptr %this, ptr %this.addr, align 8
  %this1 = load ptr, ptr %this.addr, align 8
  %m_nodes = getelementptr inbounds %class.ref_vector_core.99, ptr %this1, i32 0, i32 1
  %call = call noundef i32 @_ZNK6vectorIP3appLb0EjE4sizeEv(ptr noundef nonnull align 8 dereferenceable(8) %m_nodes)
  ret i32 %call
}

; Function Attrs: mustprogress nounwind uwtable
define linkonce_odr hidden void @_ZN10params_refC2Ev(ptr noundef nonnull align 8 dereferenceable(8) %this) unnamed_addr #5 comdat align 2 {
entry:
  %this.addr = alloca ptr, align 8
  store ptr %this, ptr %this.addr, align 8
  %this1 = load ptr, ptr %this.addr, align 8
  %m_params = getelementptr inbounds %class.params_ref, ptr %this1, i32 0, i32 0
  store ptr null, ptr %m_params, align 8
  ret void
}

; Function Attrs: mustprogress nounwind uwtable
define linkonce_odr hidden noundef nonnull align 8 dereferenceable(976) ptr @_ZNK10ref_vectorI3app11ast_managerE11get_managerEv(ptr noundef nonnull align 8 dereferenceable(16) %this) #5 comdat align 2 {
entry:
  %this.addr = alloca ptr, align 8
  store ptr %this, ptr %this.addr, align 8
  %this1 = load ptr, ptr %this.addr, align 8
  %m_manager = getelementptr inbounds %class.ref_manager_wrapper.100, ptr %this1, i32 0, i32 0
  %0 = load ptr, ptr %m_manager, align 8
  ret ptr %0
}

; Function Attrs: mustprogress uwtable
define hidden noundef nonnull align 8 dereferenceable(8) ptr @_ZlsRSoRK10ref_vectorI3app11ast_managerE(ptr noundef nonnull align 8 dereferenceable(8) %out, ptr noundef nonnull align 8 dereferenceable(16) %e) #4 personality ptr @__gxx_personality_v0 {
entry:
  %out.addr = alloca ptr, align 8
  %e.addr = alloca ptr, align 8
  %env = alloca %class.smt2_pp_environment_dbg, align 8
  %p = alloca %class.params_ref, align 8
  %exn.slot = alloca ptr, align 8
  %ehselector.slot = alloca i32, align 4
  store ptr %out, ptr %out.addr, align 8
  store ptr %e, ptr %e.addr, align 8
  %0 = load ptr, ptr %e.addr, align 8
  %call = call noundef nonnull align 8 dereferenceable(976) ptr @_ZNK10ref_vectorI3app11ast_managerE11get_managerEv(ptr noundef nonnull align 8 dereferenceable(16) %0)
  call void @_ZN23smt2_pp_environment_dbgC2ER11ast_manager(ptr noundef nonnull align 8 dereferenceable(640) %env, ptr noundef nonnull align 8 dereferenceable(976) %call)
  invoke void @_ZN10params_refC2Ev(ptr noundef nonnull align 8 dereferenceable(8) %p)
          to label %invoke.cont unwind label %lpad

invoke.cont:                                      ; preds = %entry
  %1 = load ptr, ptr %out.addr, align 8
  %2 = load ptr, ptr %e.addr, align 8
  %call3 = invoke noundef i32 @_ZNK15ref_vector_coreI3app19ref_manager_wrapperIS0_11ast_managerEE4sizeEv(ptr noundef nonnull align 8 dereferenceable(16) %2)
          to label %invoke.cont2 unwind label %lpad1

invoke.cont2:                                     ; preds = %invoke.cont
  %3 = load ptr, ptr %e.addr, align 8
  %call5 = invoke noundef ptr @_ZNK15ref_vector_coreI3app19ref_manager_wrapperIS0_11ast_managerEE4dataEv(ptr noundef nonnull align 8 dereferenceable(16) %3)
          to label %invoke.cont4 unwind label %lpad1

invoke.cont4:                                     ; preds = %invoke.cont2
  %call7 = invoke noundef nonnull align 8 dereferenceable(8) ptr @_Z11ast_smt2_ppRSojPKP4exprR19smt2_pp_environmentRK10params_refjjPKc(ptr noundef nonnull align 8 dereferenceable(8) %1, i32 noundef %call3, ptr noundef %call5, ptr noundef nonnull align 8 dereferenceable(56) %env, ptr noundef nonnull align 8 dereferenceable(8) %p, i32 noundef 0, i32 noundef 0, ptr noundef null)
          to label %invoke.cont6 unwind label %lpad1

invoke.cont6:                                     ; preds = %invoke.cont4
  call void @_ZN10params_refD1Ev(ptr noundef nonnull align 8 dereferenceable(8) %p) #3
  call void @_ZN23smt2_pp_environment_dbgD2Ev(ptr noundef nonnull align 8 dereferenceable(640) %env) #3
  ret ptr %call7

lpad:                                             ; preds = %entry
  %4 = landingpad { ptr, i32 }
          cleanup
  %5 = extractvalue { ptr, i32 } %4, 0
  store ptr %5, ptr %exn.slot, align 8
  %6 = extractvalue { ptr, i32 } %4, 1
  store i32 %6, ptr %ehselector.slot, align 4
  br label %ehcleanup

lpad1:                                            ; preds = %invoke.cont4, %invoke.cont2, %invoke.cont
  %7 = landingpad { ptr, i32 }
          cleanup
  %8 = extractvalue { ptr, i32 } %7, 0
  store ptr %8, ptr %exn.slot, align 8
  %9 = extractvalue { ptr, i32 } %7, 1
  store i32 %9, ptr %ehselector.slot, align 4
  call void @_ZN10params_refD1Ev(ptr noundef nonnull align 8 dereferenceable(8) %p) #3
  br label %ehcleanup

ehcleanup:                                        ; preds = %lpad1, %lpad
  call void @_ZN23smt2_pp_environment_dbgD2Ev(ptr noundef nonnull align 8 dereferenceable(640) %env) #3
  br label %eh.resume

eh.resume:                                        ; preds = %ehcleanup
  %exn = load ptr, ptr %exn.slot, align 8
  %sel = load i32, ptr %ehselector.slot, align 4
  %lpad.val = insertvalue { ptr, i32 } poison, ptr %exn, 0
  %lpad.val8 = insertvalue { ptr, i32 } %lpad.val, i32 %sel, 1
  resume { ptr, i32 } %lpad.val8
}