; Function Attrs: mustprogress uwtable
define hidden noundef nonnull align 8 dereferenceable(8) ptr @_ZlsRSoRK10ref_vectorI3app11ast_managerE(ptr noundef nonnull returned align 8 dereferenceable(8) %out, ptr nocapture noundef nonnull readonly align 8 dereferenceable(16) %e) local_unnamed_addr #3 personality ptr @__gxx_personality_v0 {
entry:
  %env = alloca %class.smt2_pp_environment_dbg, align 8
  %p = alloca %class.params_ref, align 8
  %0 = load ptr, ptr %e, align 8
  call void @_ZN23smt2_pp_environment_dbgC2ER11ast_manager(ptr noundef nonnull align 8 dereferenceable(640) %env, ptr noundef nonnull align 8 dereferenceable(976) %0)
  store ptr null, ptr %p, align 8
  %m_nodes.i = getelementptr inbounds i8, ptr %e, i64 8
  %1 = load ptr, ptr %m_nodes.i, align 8
  %cmp.i.i = icmp eq ptr %1, null
  br i1 %cmp.i.i, label %_ZNK15ref_vector_coreI3app19ref_manager_wrapperIS0_11ast_managerEE4sizeEv.exit, label %if.end.i.i

if.end.i.i:                                       ; preds = %entry
  %arrayidx.i.i = getelementptr inbounds i8, ptr %1, i64 -4
  %2 = load i32, ptr %arrayidx.i.i, align 4
  br label %_ZNK15ref_vector_coreI3app19ref_manager_wrapperIS0_11ast_managerEE4sizeEv.exit

_ZNK15ref_vector_coreI3app19ref_manager_wrapperIS0_11ast_managerEE4sizeEv.exit: ; preds = %entry, %if.end.i.i
  %retval.0.i.i = phi i32 [ %2, %if.end.i.i ], [ 0, %entry ]
  %call7 = invoke noundef nonnull align 8 dereferenceable(8) ptr @_Z11ast_smt2_ppRSojPKP4exprR19smt2_pp_environmentRK10params_refjjPKc(ptr noundef nonnull align 8 dereferenceable(8) %out, i32 noundef %retval.0.i.i, ptr noundef %1, ptr noundef nonnull align 8 dereferenceable(56) %env, ptr noundef nonnull align 8 dereferenceable(8) %p, i32 noundef 0, i32 noundef 0, ptr noundef null)
          to label %invoke.cont6 unwind label %lpad1

invoke.cont6:                                     ; preds = %_ZNK15ref_vector_coreI3app19ref_manager_wrapperIS0_11ast_managerEE4sizeEv.exit
  call void @_ZN10params_refD1Ev(ptr noundef nonnull align 8 dereferenceable(8) %p) #19
  call void @_ZN23smt2_pp_environment_dbgD2Ev(ptr noundef nonnull align 8 dereferenceable(640) %env) #19
  ret ptr %out

lpad1:                                            ; preds = %_ZNK15ref_vector_coreI3app19ref_manager_wrapperIS0_11ast_managerEE4sizeEv.exit
  %3 = landingpad { ptr, i32 }
          cleanup
  call void @_ZN10params_refD1Ev(ptr noundef nonnull align 8 dereferenceable(8) %p) #19
  call void @_ZN23smt2_pp_environment_dbgD2Ev(ptr noundef nonnull align 8 dereferenceable(640) %env) #19
  resume { ptr, i32 } %3
}